; Function Attrs: mustprogress nofree norecurse nosync nounwind willreturn memory(argmem: readwrite) uwtable
define void @ff_h264_chroma_dc_dequant_idct_12_c(ptr noundef captures(none) %0, i32 noundef %1) local_unnamed_addr #4 {
  %3 = load i32, ptr %0, align 4, !tbaa !18
  %4 = getelementptr inbounds nuw i8, ptr %0, i64 64
  %5 = load i32, ptr %4, align 4, !tbaa !18
  %6 = getelementptr inbounds nuw i8, ptr %0, i64 128
  %7 = load i32, ptr %6, align 4, !tbaa !18
  %8 = getelementptr inbounds nuw i8, ptr %0, i64 192
  %9 = load i32, ptr %8, align 4, !tbaa !18
  %10 = sub i32 %3, %5
  %11 = add i32 %5, %3
  %12 = sub i32 %7, %9
  %13 = add i32 %9, %7
  %14 = add i32 %13, %11
  %15 = mul i32 %14, %1
  %16 = ashr i32 %15, 7
  store i32 %16, ptr %0, align 4, !tbaa !18
  %17 = add i32 %12, %10
  %18 = mul i32 %17, %1
  %19 = ashr i32 %18, 7
  store i32 %19, ptr %4, align 4, !tbaa !18
  %20 = sub i32 %11, %13
  %21 = mul i32 %20, %1
  %22 = ashr i32 %21, 7
  store i32 %22, ptr %6, align 4, !tbaa !18
  %23 = sub i32 %10, %12
  %24 = mul i32 %23, %1
  %25 = ashr i32 %24, 7
  store i32 %25, ptr %8, align 4, !tbaa !18
  ret void
}